; Function Attrs: mustprogress uwtable
define dso_local void @_ZN4Luau7CodeGen3A6418AssemblyBuilderA643subENS1_11RegisterA64ES3_S3_i(ptr noundef nonnull align 8 dereferenceable(176) %0, i8 %1, i8 %2, i8 %3, i32 noundef %4) local_unnamed_addr #0 align 2 {
  %6 = and i8 %2, 7
  %7 = icmp eq i8 %6, 2
  %8 = and i8 %3, 7
  %9 = icmp eq i8 %8, 1
  %or.cond = select i1 %7, i1 %9, i1 false
  %10 = getelementptr inbounds nuw i8, ptr %0, i64 80
  %11 = load i8, ptr %10, align 8, !tbaa !14, !range !46, !noundef !47
  %12 = trunc nuw i8 %11 to i1
  br i1 %or.cond, label %13, label %39

13:                                               ; preds = %5
  br i1 %12, label %14, label %15

14:                                               ; preds = %13
  tail call void @_ZN4Luau7CodeGen3A6418AssemblyBuilderA643logEPKcNS1_11RegisterA64ES5_S5_i(ptr noundef nonnull align 8 dereferenceable(176) %0, ptr noundef nonnull @.str.5, i8 %1, i8 %2, i8 %3, i32 noundef %4)
  br label %15

15:                                               ; preds = %14, %13
  %16 = and i8 %1, 7
  %17 = icmp eq i8 %16, 2
  %18 = lshr i8 %1, 3
  %19 = zext nneg i8 %18 to i32
  %20 = lshr i8 %2, 3
  %21 = zext nneg i8 %20 to i32
  %22 = shl nuw nsw i32 %21, 5
  %23 = or disjoint i32 %22, %19
  %24 = shl i32 %4, 10
  %25 = or disjoint i32 %23, %24
  %26 = lshr i8 %3, 3
  %27 = zext nneg i8 %26 to i32
  %28 = shl nuw nsw i32 %27, 16
  %29 = select i1 %17, i32 -2145370112, i32 2113536
  %30 = or disjoint i32 %28, %29
  %31 = or i32 %30, %25
  %32 = or i32 %31, 1258291200
  %33 = getelementptr inbounds nuw i8, ptr %0, i64 160
  %34 = load ptr, ptr %33, align 8, !tbaa !39
  %35 = getelementptr inbounds nuw i8, ptr %34, i64 4
  store ptr %35, ptr %33, align 8, !tbaa !39
  store i32 %32, ptr %34, align 4, !tbaa !48
  %36 = getelementptr inbounds nuw i8, ptr %0, i64 168
  %37 = load ptr, ptr %36, align 8, !tbaa !40
  %38 = icmp eq ptr %37, %35
  br i1 %38, label %_ZN4Luau7CodeGen3A6418AssemblyBuilderA647placeEREPKcNS1_11RegisterA64ES5_S5_hi.exit.sink.split, label %_ZN4Luau7CodeGen3A6418AssemblyBuilderA647placeEREPKcNS1_11RegisterA64ES5_S5_hi.exit

39:                                               ; preds = %5
  br i1 %12, label %40, label %41

40:                                               ; preds = %39
  tail call void @_ZN4Luau7CodeGen3A6418AssemblyBuilderA643logEPKcNS1_11RegisterA64ES5_S5_i(ptr noundef nonnull align 8 dereferenceable(176) %0, ptr noundef nonnull @.str.5, i8 %1, i8 %2, i8 %3, i32 noundef %4)
  br label %41

41:                                               ; preds = %40, %39
  %42 = and i8 %1, 7
  %43 = icmp eq i8 %42, 2
  %44 = select i1 %43, i32 -2147483648, i32 0
  %45 = lshr i8 %1, 3
  %46 = zext nneg i8 %45 to i32
  %47 = lshr i8 %2, 3
  %48 = zext nneg i8 %47 to i32
  %49 = shl nuw nsw i32 %48, 5
  %50 = or disjoint i32 %49, %46
  %51 = tail call i32 @llvm.abs.i32(i32 %4, i1 true)
  %52 = shl i32 %51, 10
  %53 = or disjoint i32 %52, %50
  %54 = lshr i8 %3, 3
  %55 = zext nneg i8 %54 to i32
  %56 = shl nuw nsw i32 %55, 16
  %57 = lshr i32 %4, 9
  %58 = and i32 %57, 4194304
  %59 = or disjoint i32 %56, %44
  %60 = or disjoint i32 %59, %58
  %61 = or i32 %53, %60
  %62 = or i32 %61, 1258291200
  %63 = getelementptr inbounds nuw i8, ptr %0, i64 160
  %64 = load ptr, ptr %63, align 8, !tbaa !39
  %65 = getelementptr inbounds nuw i8, ptr %64, i64 4
  store ptr %65, ptr %63, align 8, !tbaa !39
  store i32 %62, ptr %64, align 4, !tbaa !48
  %66 = getelementptr inbounds nuw i8, ptr %0, i64 168
  %67 = load ptr, ptr %66, align 8, !tbaa !40
  %68 = icmp eq ptr %67, %65
  br i1 %68, label %_ZN4Luau7CodeGen3A6418AssemblyBuilderA647placeEREPKcNS1_11RegisterA64ES5_S5_hi.exit.sink.split, label %_ZN4Luau7CodeGen3A6418AssemblyBuilderA647placeEREPKcNS1_11RegisterA64ES5_S5_hi.exit

_ZN4Luau7CodeGen3A6418AssemblyBuilderA647placeEREPKcNS1_11RegisterA64ES5_S5_hi.exit.sink.split: ; preds = %41, %15
  tail call void @_ZN4Luau7CodeGen3A6418AssemblyBuilderA646extendEv(ptr noundef nonnull align 8 dereferenceable(176) %0)
  br label %_ZN4Luau7CodeGen3A6418AssemblyBuilderA647placeEREPKcNS1_11RegisterA64ES5_S5_hi.exit

_ZN4Luau7CodeGen3A6418AssemblyBuilderA647placeEREPKcNS1_11RegisterA64ES5_S5_hi.exit: ; preds = %_ZN4Luau7CodeGen3A6418AssemblyBuilderA647placeEREPKcNS1_11RegisterA64ES5_S5_hi.exit.sink.split, %41, %15
  ret void
}